target datalayout = "e-m:e-p270:32:32-p271:32:32-p272:64:64-i64:64-i128:128-f80:128-n8:16:32:64-S128"
target triple = "x86_64-pc-linux-gnu"

; Function Attrs: nounwind uwtable
define void @dt_gui_draw_rounded_rectangle(ptr noundef %0, float noundef %1, float noundef %2, float noundef %3, float noundef %4) #0 {
  %6 = alloca ptr, align 8
  %7 = alloca float, align 4
  %8 = alloca float, align 4
  %9 = alloca float, align 4
  %10 = alloca float, align 4
  %11 = alloca float, align 4
  %12 = alloca float, align 4
  store ptr %0, ptr %6, align 8, !tbaa !83
  store float %1, ptr %7, align 4, !tbaa !90
  store float %2, ptr %8, align 4, !tbaa !90
  store float %3, ptr %9, align 4, !tbaa !90
  store float %4, ptr %10, align 4, !tbaa !90
  call void @llvm.lifetime.start.p0(i64 4, ptr %11) #15
  %13 = load float, ptr %8, align 4, !tbaa !90
  %14 = fdiv reassoc nsz arcp contract afn float %13, 5.000000e+00
  store float %14, ptr %11, align 4, !tbaa !90
  call void @llvm.lifetime.start.p0(i64 4, ptr %12) #15
  store float 0x3F91DF46A0000000, ptr %12, align 4, !tbaa !90
  %15 = load ptr, ptr %6, align 8, !tbaa !83
  call void @cairo_new_sub_path(ptr noundef %15)
  %16 = load ptr, ptr %6, align 8, !tbaa !83
  %17 = load float, ptr %9, align 4, !tbaa !90
  %18 = load float, ptr %7, align 4, !tbaa !90
  %19 = fadd reassoc nsz arcp contract afn float %17, %18
  %20 = load float, ptr %11, align 4, !tbaa !90
  %21 = fsub reassoc nsz arcp contract afn float %19, %20
  %22 = fpext reassoc nsz arcp contract afn float %21 to double
  %23 = load float, ptr %10, align 4, !tbaa !90
  %24 = load float, ptr %11, align 4, !tbaa !90
  %25 = fadd reassoc nsz arcp contract afn float %23, %24
  %26 = fpext reassoc nsz arcp contract afn float %25 to double
  %27 = load float, ptr %11, align 4, !tbaa !90
  %28 = fpext reassoc nsz arcp contract afn float %27 to double
  call void @cairo_arc(ptr noundef %16, double noundef %22, double noundef %26, double noundef %28, double noundef 0xBFF921FB60000000, double noundef 0.000000e+00)
  %29 = load ptr, ptr %6, align 8, !tbaa !83
  %30 = load float, ptr %9, align 4, !tbaa !90
  %31 = load float, ptr %7, align 4, !tbaa !90
  %32 = fadd reassoc nsz arcp contract afn float %30, %31
  %33 = load float, ptr %11, align 4, !tbaa !90
  %34 = fsub reassoc nsz arcp contract afn float %32, %33
  %35 = fpext reassoc nsz arcp contract afn float %34 to double
  %36 = load float, ptr %10, align 4, !tbaa !90
  %37 = load float, ptr %8, align 4, !tbaa !90
  %38 = fadd reassoc nsz arcp contract afn float %36, %37
  %39 = load float, ptr %11, align 4, !tbaa !90
  %40 = fsub reassoc nsz arcp contract afn float %38, %39
  %41 = fpext reassoc nsz arcp contract afn float %40 to double
  %42 = load float, ptr %11, align 4, !tbaa !90
  %43 = fpext reassoc nsz arcp contract afn float %42 to double
  call void @cairo_arc(ptr noundef %29, double noundef %35, double noundef %41, double noundef %43, double noundef 0.000000e+00, double noundef 0x3FF921FB60000000)
  %44 = load ptr, ptr %6, align 8, !tbaa !83
  %45 = load float, ptr %9, align 4, !tbaa !90
  %46 = load float, ptr %11, align 4, !tbaa !90
  %47 = fadd reassoc nsz arcp contract afn float %45, %46
  %48 = fpext reassoc nsz arcp contract afn float %47 to double
  %49 = load float, ptr %10, align 4, !tbaa !90
  %50 = load float, ptr %8, align 4, !tbaa !90
  %51 = fadd reassoc nsz arcp contract afn float %49, %50
  %52 = load float, ptr %11, align 4, !tbaa !90
  %53 = fsub reassoc nsz arcp contract afn float %51, %52
  %54 = fpext reassoc nsz arcp contract afn float %53 to double
  %55 = load float, ptr %11, align 4, !tbaa !90
  %56 = fpext reassoc nsz arcp contract afn float %55 to double
  call void @cairo_arc(ptr noundef %44, double noundef %48, double noundef %54, double noundef %56, double noundef 0x3FF921FB60000000, double noundef 0x400921FB60000000)
  %57 = load ptr, ptr %6, align 8, !tbaa !83
  %58 = load float, ptr %9, align 4, !tbaa !90
  %59 = load float, ptr %11, align 4, !tbaa !90
  %60 = fadd reassoc nsz arcp contract afn float %58, %59
  %61 = fpext reassoc nsz arcp contract afn float %60 to double
  %62 = load float, ptr %10, align 4, !tbaa !90
  %63 = load float, ptr %11, align 4, !tbaa !90
  %64 = fadd reassoc nsz arcp contract afn float %62, %63
  %65 = fpext reassoc nsz arcp contract afn float %64 to double
  %66 = load float, ptr %11, align 4, !tbaa !90
  %67 = fpext reassoc nsz arcp contract afn float %66 to double
  call void @cairo_arc(ptr noundef %57, double noundef %61, double noundef %65, double noundef %67, double noundef 0x400921FB60000000, double noundef 0x4012D97C80000000)
  %68 = load ptr, ptr %6, align 8, !tbaa !83
  call void @cairo_close_path(ptr noundef %68)
  %69 = load ptr, ptr %6, align 8, !tbaa !83
  call void @cairo_fill(ptr noundef %69)
  call void @llvm.lifetime.end.p0(i64 4, ptr %12) #15
  call void @llvm.lifetime.end.p0(i64 4, ptr %11) #15
  ret void
}