; Function Attrs: nounwind uwtable
define void @dt_gui_draw_rounded_rectangle(ptr noundef %0, float noundef %1, float noundef %2, float noundef %3, float noundef %4) local_unnamed_addr #0 {
  %6 = fmul reassoc nsz arcp contract afn float %2, 0x3FC99999A0000000
  tail call void @cairo_new_sub_path(ptr noundef %0) #18
  %7 = fadd reassoc nsz arcp contract afn float %3, %1
  %8 = fsub reassoc nsz arcp contract afn float %7, %6
  %9 = fpext reassoc nsz arcp contract afn float %8 to double
  %10 = fadd reassoc nsz arcp contract afn float %4, %6
  %11 = fpext reassoc nsz arcp contract afn float %10 to double
  %12 = fpext reassoc nsz arcp contract afn float %6 to double
  tail call void @cairo_arc(ptr noundef %0, double noundef %9, double noundef %11, double noundef %12, double noundef 0xBFF921FB60000000, double noundef 0.000000e+00) #18
  %13 = fmul reassoc nsz arcp contract afn float %2, 0x3FE99999A0000000
  %14 = fadd reassoc nsz arcp contract afn float %13, %4
  %15 = fpext reassoc nsz arcp contract afn float %14 to double
  tail call void @cairo_arc(ptr noundef %0, double noundef %9, double noundef %15, double noundef %12, double noundef 0.000000e+00, double noundef 0x3FF921FB60000000) #18
  %16 = fadd reassoc nsz arcp contract afn float %3, %6
  %17 = fpext reassoc nsz arcp contract afn float %16 to double
  tail call void @cairo_arc(ptr noundef %0, double noundef %17, double noundef %15, double noundef %12, double noundef 0x3FF921FB60000000, double noundef 0x400921FB60000000) #18
  tail call void @cairo_arc(ptr noundef %0, double noundef %17, double noundef %11, double noundef %12, double noundef 0x400921FB60000000, double noundef 0x4012D97C80000000) #18
  tail call void @cairo_close_path(ptr noundef %0) #18
  tail call void @cairo_fill(ptr noundef %0) #18
  ret void
}